; Function Attrs: mustprogress uwtable
define void @_ZN9grpc_core22OutlierDetectionConfig19SuccessRateEjection12JsonPostLoadERKNS_12experimental4JsonERKNS_8JsonArgsEPNS_16ValidationErrorsE(ptr noundef nonnull readonly align 4 captures(none) dereferenceable(16) %0, ptr noundef nonnull readnone align 8 captures(none) dereferenceable(56) %1, ptr noundef nonnull readnone align 8 captures(none) dereferenceable(8) %2, ptr noundef %3) local_unnamed_addr #3 align 2 personality ptr @__gxx_personality_v0 {
  %5 = alloca %"class.grpc_core::ValidationErrors::ScopedField", align 8
  %6 = getelementptr inbounds nuw i8, ptr %0, i64 4
  %7 = load i32, ptr %6, align 4, !tbaa !12
  %8 = icmp ugt i32 %7, 100
  br i1 %8, label %9, label %16

9:                                                ; preds = %4
  call void @llvm.lifetime.start.p0(i64 8, ptr nonnull %5) #36
  store ptr %3, ptr %5, align 8, !tbaa !15
  tail call void @_ZN9grpc_core16ValidationErrors9PushFieldESt17basic_string_viewIcSt11char_traitsIcEE(ptr noundef nonnull align 8 dereferenceable(80) %3, i64 23, ptr nonnull @.str.4)
  invoke void @_ZN9grpc_core16ValidationErrors8AddErrorESt17basic_string_viewIcSt11char_traitsIcEE(ptr noundef nonnull align 8 dereferenceable(80) %3, i64 20, ptr nonnull @.str.5)
          to label %10 unwind label %14

10:                                               ; preds = %9
  invoke void @_ZN9grpc_core16ValidationErrors8PopFieldEv(ptr noundef nonnull align 8 dereferenceable(80) %3)
          to label %_ZN9grpc_core16ValidationErrors11ScopedFieldD2Ev.exit unwind label %11

11:                                               ; preds = %10
  %12 = landingpad { ptr, i32 }
          catch ptr null
  %13 = extractvalue { ptr, i32 } %12, 0
  tail call void @__clang_call_terminate(ptr %13) #38
  unreachable

_ZN9grpc_core16ValidationErrors11ScopedFieldD2Ev.exit: ; preds = %10
  call void @llvm.lifetime.end.p0(i64 8, ptr nonnull %5) #36
  br label %16

14:                                               ; preds = %9
  %15 = landingpad { ptr, i32 }
          cleanup
  call void @_ZN9grpc_core16ValidationErrors11ScopedFieldD2Ev(ptr noundef nonnull align 8 dereferenceable(8) %5) #36
  call void @llvm.lifetime.end.p0(i64 8, ptr nonnull %5) #36
  resume { ptr, i32 } %15

16:                                               ; preds = %_ZN9grpc_core16ValidationErrors11ScopedFieldD2Ev.exit, %4
  ret void
}